target datalayout = "e-m:e-p270:32:32-p271:32:32-p272:64:64-i64:64-i128:128-f80:128-n8:16:32:64-S128"
target triple = "x86_64-pc-linux-gnu"

%struct.eio_obj = type { i32, ptr, ptr, i8 }

@.str.15 = private unnamed_addr constant [34 x i8] c"Called _listening_socket_readable\00", align 1
@.str.16 = private unnamed_addr constant [18 x i8] c"  false, shutdown\00", align 1

; Function Attrs: nounwind uwtable
define internal zeroext i1 @_listening_socket_readable(ptr noundef %0) #0 {
  %2 = alloca i1, align 1
  %3 = alloca ptr, align 8
  store ptr %0, ptr %3, align 8
  br label %4

4:                                                ; preds = %1
  br label %5

5:                                                ; preds = %4
  %6 = call i32 @get_log_level()
  %7 = icmp sge i32 %6, 7
  br i1 %7, label %8, label %9

8:                                                ; preds = %5
  call void (i32, ptr, ...) @log_var(i32 noundef 7, ptr noundef @.str.15)
  br label %9

9:                                                ; preds = %8, %5
  br label %10

10:                                               ; preds = %9
  br label %11

11:                                               ; preds = %10
  %12 = load ptr, ptr %3, align 8
  %13 = getelementptr inbounds nuw %struct.eio_obj, ptr %12, i32 0, i32 3
  %14 = load i8, ptr %13, align 8, !range !8, !noundef !9
  %15 = trunc i8 %14 to i1
  %16 = zext i1 %15 to i32
  %17 = icmp eq i32 %16, 1
  br i1 %17, label %18, label %45

18:                                               ; preds = %11
  %19 = load ptr, ptr %3, align 8
  %20 = getelementptr inbounds nuw %struct.eio_obj, ptr %19, i32 0, i32 0
  %21 = load i32, ptr %20, align 8
  %22 = icmp ne i32 %21, -1
  br i1 %22, label %23, label %36

23:                                               ; preds = %18
  %24 = load ptr, ptr %3, align 8
  %25 = getelementptr inbounds nuw %struct.eio_obj, ptr %24, i32 0, i32 0
  %26 = load i32, ptr %25, align 8
  %27 = icmp sgt i32 %26, 2
  br i1 %27, label %28, label %33

28:                                               ; preds = %23
  %29 = load ptr, ptr %3, align 8
  %30 = getelementptr inbounds nuw %struct.eio_obj, ptr %29, i32 0, i32 0
  %31 = load i32, ptr %30, align 8
  %32 = call i32 @close(i32 noundef %31)
  br label %33

33:                                               ; preds = %28, %23
  %34 = load ptr, ptr %3, align 8
  %35 = getelementptr inbounds nuw %struct.eio_obj, ptr %34, i32 0, i32 0
  store i32 -1, ptr %35, align 8
  br label %36

36:                                               ; preds = %33, %18
  br label %37

37:                                               ; preds = %36
  br label %38

38:                                               ; preds = %37
  %39 = call i32 @get_log_level()
  %40 = icmp sge i32 %39, 6
  br i1 %40, label %41, label %42

41:                                               ; preds = %38
  call void (i32, ptr, ...) @log_var(i32 noundef 6, ptr noundef @.str.16)
  br label %42

42:                                               ; preds = %41, %38
  br label %43

43:                                               ; preds = %42
  br label %44

44:                                               ; preds = %43
  store i1 false, ptr %2, align 1
  br label %46

45:                                               ; preds = %11
  store i1 true, ptr %2, align 1
  br label %46

46:                                               ; preds = %45, %44
  %47 = load i1, ptr %2, align 1
  ret i1 %47
}