; Function Attrs: nounwind uwtable
define internal noundef zeroext i1 @_listening_socket_readable(ptr noundef captures(none) %0) #0 {
  %2 = tail call i32 @get_log_level() #10
  %3 = icmp sgt i32 %2, 6
  br i1 %3, label %4, label %5

4:                                                ; preds = %1
  tail call void (i32, ptr, ...) @log_var(i32 noundef 7, ptr noundef nonnull @.str.15) #10
  br label %5

5:                                                ; preds = %4, %1
  %6 = getelementptr inbounds nuw i8, ptr %0, i64 24
  %7 = load i8, ptr %6, align 8, !range !8, !noundef !9
  %8 = trunc nuw i8 %7 to i1
  br i1 %8, label %9, label %20

9:                                                ; preds = %5
  %10 = load i32, ptr %0, align 8
  %.not = icmp eq i32 %10, -1
  br i1 %.not, label %16, label %11

11:                                               ; preds = %9
  %12 = icmp sgt i32 %10, 2
  br i1 %12, label %13, label %15

13:                                               ; preds = %11
  %14 = tail call i32 @close(i32 noundef %10) #10
  br label %15

15:                                               ; preds = %13, %11
  store i32 -1, ptr %0, align 8
  br label %16

16:                                               ; preds = %15, %9
  %17 = tail call i32 @get_log_level() #10
  %18 = icmp sgt i32 %17, 5
  br i1 %18, label %19, label %20

19:                                               ; preds = %16
  tail call void (i32, ptr, ...) @log_var(i32 noundef 6, ptr noundef nonnull @.str.16) #10
  br label %20

20:                                               ; preds = %5, %16, %19
  %.0 = xor i1 %8, true
  ret i1 %.0
}